target datalayout = "e-m:e-p270:32:32-p271:32:32-p272:64:64-i64:64-i128:128-f80:128-n8:16:32:64-S128"
target triple = "x86_64-pc-linux-gnu"

%"class.std::__cxx11::basic_string" = type { %"struct.std::__cxx11::basic_string<char>::_Alloc_hider", i64, %union.anon }
%"struct.std::__cxx11::basic_string<char>::_Alloc_hider" = type { ptr }
%union.anon = type { i64, [8 x i8] }
%"struct.boost::process::v2::shell" = type { %"class.std::__cxx11::basic_string", %"struct.boost::process::v2::basic_cstring_ref", i32, ptr, ptr }
%"struct.boost::process::v2::basic_cstring_ref" = type { ptr }
%"class.boost::system::error_code" = type { %union.anon.1, i64 }
%union.anon.1 = type { %"struct.boost::system::error_code::data" }
%"struct.boost::system::error_code::data" = type { i32, ptr }
%"class.std::error_code" = type { i32, ptr }

@.str.9 = private unnamed_addr constant [4 x i8] c"cmd\00", align 1

; Function Attrs: mustprogress nounwind uwtable
define linkonce_odr hidden noundef i32 @_ZNKSt10error_code5valueEv(ptr noundef nonnull align 8 dereferenceable(16) %0) #2 comdat align 2 {
  %2 = alloca ptr, align 8
  store ptr %0, ptr %2, align 8, !tbaa !7
  %3 = load ptr, ptr %2, align 8
  %4 = getelementptr inbounds nuw %"class.std::error_code", ptr %3, i32 0, i32 0
  %5 = load i32, ptr %4, align 8, !tbaa !50
  ret i32 %5
}

; Function Attrs: mustprogress nounwind uwtable
define linkonce_odr hidden noundef zeroext i1 @_ZNK5boost6system10error_code6failedEv(ptr noundef nonnull align 8 dereferenceable(24) %0) #2 comdat align 2 {
  %2 = alloca i1, align 1
  %3 = alloca ptr, align 8
  %4 = alloca ptr, align 8
  store ptr %0, ptr %3, align 8, !tbaa !7
  %5 = load ptr, ptr %3, align 8
  %6 = getelementptr inbounds nuw %"class.boost::system::error_code", ptr %5, i32 0, i32 1
  %7 = load i64, ptr %6, align 8, !tbaa !36
  %8 = and i64 %7, 1
  %9 = icmp ne i64 %8, 0
  br i1 %9, label %10, label %21

10:                                               ; preds = %1
  %11 = getelementptr inbounds nuw %"class.boost::system::error_code", ptr %5, i32 0, i32 1
  %12 = load i64, ptr %11, align 8, !tbaa !36
  %13 = icmp eq i64 %12, 1
  br i1 %13, label %14, label %20

14:                                               ; preds = %10
  call void @llvm.lifetime.start.p0(i64 8, ptr %4) #13
  %15 = getelementptr inbounds nuw %"class.boost::system::error_code", ptr %5, i32 0, i32 0
  %16 = getelementptr inbounds [16 x i8], ptr %15, i64 0, i64 0
  store ptr %16, ptr %4, align 8, !tbaa !7
  %17 = load ptr, ptr %4, align 8, !tbaa !7
  %18 = call noundef i32 @_ZNKSt10error_code5valueEv(ptr noundef nonnull align 8 dereferenceable(16) %17) #13
  %19 = icmp ne i32 %18, 0
  store i1 %19, ptr %2, align 1
  call void @llvm.lifetime.end.p0(i64 8, ptr %4) #13
  br label %22

20:                                               ; preds = %10
  store i1 true, ptr %2, align 1
  br label %22

21:                                               ; preds = %1
  store i1 false, ptr %2, align 1
  br label %22

22:                                               ; preds = %21, %20, %14
  %23 = load i1, ptr %2, align 1
  ret i1 %23
}

; Function Attrs: inlinehint mustprogress uwtable
define linkonce_odr hidden void @_ZN5boost7process2v26detail11throw_errorERKNS_6system10error_codeEPKc(ptr noundef nonnull align 8 dereferenceable(24) %0, ptr noundef %1) #0 comdat {
  %3 = alloca ptr, align 8
  %4 = alloca ptr, align 8
  store ptr %0, ptr %3, align 8, !tbaa !7
  store ptr %1, ptr %4, align 8, !tbaa !7
  %5 = load ptr, ptr %3, align 8, !tbaa !7
  %6 = call noundef zeroext i1 @_ZNK5boost6system10error_codecvbEv(ptr noundef nonnull align 8 dereferenceable(24) %5) #13
  br i1 %6, label %7, label %10

7:                                                ; preds = %2
  %8 = load ptr, ptr %3, align 8, !tbaa !7
  %9 = load ptr, ptr %4, align 8, !tbaa !7
  call void @_ZN5boost7process2v26detail14do_throw_errorERKNS_6system10error_codeEPKc(ptr noundef nonnull align 8 dereferenceable(24) %8, ptr noundef %9)
  br label %10

10:                                               ; preds = %7, %2
  ret void
}

; Function Attrs: mustprogress nounwind uwtable
define linkonce_odr hidden noundef zeroext i1 @_ZNK5boost6system10error_codecvbEv(ptr noundef nonnull align 8 dereferenceable(24) %0) #2 comdat align 2 {
  %2 = alloca ptr, align 8
  store ptr %0, ptr %2, align 8, !tbaa !7
  %3 = load ptr, ptr %2, align 8
  %4 = call noundef zeroext i1 @_ZNK5boost6system10error_code6failedEv(ptr noundef nonnull align 8 dereferenceable(24) %3) #13
  ret i1 %4
}

; Function Attrs: mustprogress nounwind uwtable
define linkonce_odr hidden void @_ZN5boost6system10error_codeC2Ev(ptr noundef nonnull align 8 dereferenceable(24) %0) unnamed_addr #2 comdat align 2 {
  %2 = alloca ptr, align 8
  store ptr %0, ptr %2, align 8, !tbaa !7
  %3 = load ptr, ptr %2, align 8
  %4 = getelementptr inbounds nuw %"class.boost::system::error_code", ptr %3, i32 0, i32 0
  call void @llvm.memset.p0.i64(ptr align 8 %4, i8 0, i64 16, i1 false)
  %5 = getelementptr inbounds nuw %"class.boost::system::error_code", ptr %3, i32 0, i32 1
  store i64 0, ptr %5, align 8, !tbaa !36
  ret void
}

; Function Attrs: mustprogress uwtable
define void @_ZN5boost7process2v23ext3cmdEi(ptr dead_on_unwind noalias writable sret(%"struct.boost::process::v2::shell") align 8 %0, i32 noundef %1) #5 personality ptr @__gxx_personality_v0 {
  %3 = alloca ptr, align 8
  %4 = alloca i32, align 4
  %5 = alloca %"class.boost::system::error_code", align 8
  %6 = alloca i1, align 1
  %7 = alloca ptr, align 8
  %8 = alloca i32, align 4
  store ptr %0, ptr %3, align 8
  store i32 %1, ptr %4, align 4, !tbaa !3
  call void @llvm.lifetime.start.p0(i64 24, ptr %5) #13
  call void @_ZN5boost6system10error_codeC2Ev(ptr noundef nonnull align 8 dereferenceable(24) %5) #13
  store i1 false, ptr %6, align 1
  %9 = load i32, ptr %4, align 4, !tbaa !3
  call void @_ZN5boost7process2v23ext3cmdEiRNS_6system10error_codeE(ptr dead_on_unwind writable sret(%"struct.boost::process::v2::shell") align 8 %0, i32 noundef %9, ptr noundef nonnull align 8 dereferenceable(24) %5)
  %10 = call noundef zeroext i1 @_ZNK5boost6system10error_codecvbEv(ptr noundef nonnull align 8 dereferenceable(24) %5) #13
  br i1 %10, label %11, label %17

11:                                               ; preds = %2
  invoke void @_ZN5boost7process2v26detail11throw_errorERKNS_6system10error_codeEPKc(ptr noundef nonnull align 8 dereferenceable(24) %5, ptr noundef @.str.9)
          to label %12 unwind label %13

12:                                               ; preds = %11
  br label %17

13:                                               ; preds = %11
  %14 = landingpad { ptr, i32 }
          cleanup
  %15 = extractvalue { ptr, i32 } %14, 0
  store ptr %15, ptr %7, align 8
  %16 = extractvalue { ptr, i32 } %14, 1
  store i32 %16, ptr %8, align 4
  call void @_ZN5boost7process2v25shellD1Ev(ptr noundef nonnull align 8 dereferenceable(64) %0) #13
  call void @llvm.lifetime.end.p0(i64 24, ptr %5) #13
  br label %21

17:                                               ; preds = %12, %2
  store i1 true, ptr %6, align 1
  %18 = load i1, ptr %6, align 1
  br i1 %18, label %20, label %19

19:                                               ; preds = %17
  call void @_ZN5boost7process2v25shellD1Ev(ptr noundef nonnull align 8 dereferenceable(64) %0) #13
  br label %20

20:                                               ; preds = %19, %17
  call void @llvm.lifetime.end.p0(i64 24, ptr %5) #13
  ret void

21:                                               ; preds = %13
  %22 = load ptr, ptr %7, align 8
  %23 = load i32, ptr %8, align 4
  %24 = insertvalue { ptr, i32 } poison, ptr %22, 0
  %25 = insertvalue { ptr, i32 } %24, i32 %23, 1
  resume { ptr, i32 } %25
}